target datalayout = "e-m:e-p270:32:32-p271:32:32-p272:64:64-i64:64-i128:128-f80:128-n8:16:32:64-S128"
target triple = "x86_64-pc-linux-gnu"

%struct.expert_field = type { i32, i32 }
%struct.length_indicator_t = type { i32, i8 }

@hf_e = internal global i32 0, align 4
@hf_li = internal global i32 0, align 4
@hf_me = internal global i32 0, align 4
@ei_li = internal global %struct.expert_field zeroinitializer, align 4

; Function Attrs: null_pointer_is_valid sspstrong uwtable
define internal i32 @construct_gprs_data_segment_li_array(ptr noundef %0, ptr noundef %1, ptr noundef %2, i8 noundef zeroext %3, ptr noundef %4, ptr noundef %5, ptr noundef %6) #0 {
  %8 = alloca ptr, align 8
  %9 = alloca ptr, align 8
  %10 = alloca ptr, align 8
  %11 = alloca i8, align 1
  %12 = alloca ptr, align 8
  %13 = alloca ptr, align 8
  %14 = alloca ptr, align 8
  %15 = alloca i32, align 4
  %16 = alloca i8, align 1
  %17 = alloca ptr, align 8
  store ptr %0, ptr %8, align 8
  store ptr %1, ptr %9, align 8
  store ptr %2, ptr %10, align 8
  store i8 %3, ptr %11, align 1
  store ptr %4, ptr %12, align 8
  store ptr %5, ptr %13, align 8
  store ptr %6, ptr %14, align 8
  call void @llvm.lifetime.start.p0(i64 4, ptr %15) #5
  %18 = load i8, ptr %11, align 1
  %19 = zext i8 %18 to i32
  store i32 %19, ptr %15, align 4
  call void @llvm.lifetime.start.p0(i64 1, ptr %16) #5
  %20 = load ptr, ptr %12, align 8
  %21 = load i8, ptr %20, align 1
  store i8 %21, ptr %16, align 1
  call void @llvm.lifetime.start.p0(i64 8, ptr %17) #5
  %22 = load ptr, ptr %12, align 8
  store i8 0, ptr %22, align 1
  br label %23

23:                                               ; preds = %64, %7
  %24 = load ptr, ptr %14, align 8
  %25 = load i64, ptr %24, align 8
  %26 = icmp eq i64 %25, 0
  br i1 %26, label %27, label %82

27:                                               ; preds = %23
  %28 = load ptr, ptr %9, align 8
  %29 = load i32, ptr @hf_li, align 4
  %30 = load ptr, ptr %8, align 8
  %31 = load i32, ptr %15, align 4
  %32 = mul i32 %31, 8
  %33 = call ptr @proto_tree_add_bits_item(ptr noundef %28, i32 noundef %29, ptr noundef %30, i32 noundef %32, i32 noundef 6, i32 noundef 0)
  store ptr %33, ptr %17, align 8
  %34 = load ptr, ptr %12, align 8
  %35 = load i8, ptr %34, align 1
  %36 = zext i8 %35 to i32
  %37 = load i8, ptr %16, align 1
  %38 = zext i8 %37 to i32
  %39 = icmp slt i32 %36, %38
  br i1 %39, label %40, label %60

40:                                               ; preds = %27
  %41 = load ptr, ptr %8, align 8
  %42 = load i32, ptr %15, align 4
  %43 = call zeroext i8 @tvb_get_uint8(ptr noundef %41, i32 noundef %42)
  %44 = load ptr, ptr %13, align 8
  %45 = load ptr, ptr %12, align 8
  %46 = load i8, ptr %45, align 1
  %47 = zext i8 %46 to i64
  %48 = getelementptr %struct.length_indicator_t, ptr %44, i64 %47
  %49 = getelementptr inbounds nuw %struct.length_indicator_t, ptr %48, i32 0, i32 1
  store i8 %43, ptr %49, align 4
  %50 = load i32, ptr %15, align 4
  %51 = load ptr, ptr %13, align 8
  %52 = load ptr, ptr %12, align 8
  %53 = load i8, ptr %52, align 1
  %54 = zext i8 %53 to i64
  %55 = getelementptr %struct.length_indicator_t, ptr %51, i64 %54
  %56 = getelementptr inbounds nuw %struct.length_indicator_t, ptr %55, i32 0, i32 0
  store i32 %50, ptr %56, align 4
  %57 = load ptr, ptr %12, align 8
  %58 = load i8, ptr %57, align 1
  %59 = add i8 %58, 1
  store i8 %59, ptr %57, align 1
  br label %64

60:                                               ; preds = %27
  %61 = load ptr, ptr %10, align 8
  %62 = load ptr, ptr %17, align 8
  %63 = call ptr @expert_add_info(ptr noundef %61, ptr noundef %62, ptr noundef @ei_li)
  br label %64

64:                                               ; preds = %60, %40
  %65 = load ptr, ptr %9, align 8
  %66 = load i32, ptr @hf_me, align 4
  %67 = load ptr, ptr %8, align 8
  %68 = load i32, ptr %15, align 4
  %69 = mul i32 %68, 8
  %70 = add i32 %69, 6
  %71 = call ptr @proto_tree_add_bits_item(ptr noundef %65, i32 noundef %66, ptr noundef %67, i32 noundef %70, i32 noundef 2, i32 noundef 0)
  %72 = load ptr, ptr %9, align 8
  %73 = load i32, ptr @hf_e, align 4
  %74 = load ptr, ptr %8, align 8
  %75 = load i32, ptr %15, align 4
  %76 = mul i32 %75, 8
  %77 = add i32 %76, 7
  %78 = load ptr, ptr %14, align 8
  %79 = call ptr @proto_tree_add_bits_ret_val(ptr noundef %72, i32 noundef %73, ptr noundef %74, i32 noundef %77, i32 noundef 1, ptr noundef %78, i32 noundef 0)
  %80 = load i32, ptr %15, align 4
  %81 = add i32 %80, 1
  store i32 %81, ptr %15, align 4
  br label %23, !llvm.loop !6

82:                                               ; preds = %23
  %83 = load i32, ptr %15, align 4
  %84 = load i8, ptr %11, align 1
  %85 = zext i8 %84 to i32
  %86 = sub i32 %83, %85
  call void @llvm.lifetime.end.p0(i64 8, ptr %17) #5
  call void @llvm.lifetime.end.p0(i64 1, ptr %16) #5
  call void @llvm.lifetime.end.p0(i64 4, ptr %15) #5
  ret i32 %86
}