; Function Attrs: null_pointer_is_valid sspstrong uwtable
define internal fastcc i32 @construct_gprs_data_segment_li_array(ptr noundef %0, ptr noundef %1, ptr noundef %2, i8 noundef zeroext %3, ptr noundef captures(none) %4, ptr noundef writeonly captures(none) %5, ptr noundef %6) unnamed_addr #0 {
  %8 = zext i8 %3 to i32
  %9 = load i8, ptr %4, align 1
  store i8 0, ptr %4, align 1
  %10 = load i64, ptr %6, align 8
  %11 = icmp eq i64 %10, 0
  br i1 %11, label %.lr.ph, label %._crit_edge

.lr.ph:                                           ; preds = %7, %29
  %.028 = phi i32 [ %36, %29 ], [ %8, %7 ]
  %12 = load i32, ptr @hf_li, align 4
  %13 = shl i32 %.028, 3
  %14 = tail call ptr @proto_tree_add_bits_item(ptr noundef %1, i32 noundef %12, ptr noundef %0, i32 noundef %13, i32 noundef 6, i32 noundef 0)
  %15 = load i8, ptr %4, align 1
  %16 = icmp ult i8 %15, %9
  br i1 %16, label %17, label %27

17:                                               ; preds = %.lr.ph
  %18 = tail call zeroext i8 @tvb_get_uint8(ptr noundef %0, i32 noundef %.028)
  %19 = load i8, ptr %4, align 1
  %20 = zext i8 %19 to i64
  %21 = getelementptr %struct.length_indicator_t, ptr %5, i64 %20, i32 1
  store i8 %18, ptr %21, align 4
  %22 = load i8, ptr %4, align 1
  %23 = zext i8 %22 to i64
  %24 = getelementptr %struct.length_indicator_t, ptr %5, i64 %23
  store i32 %.028, ptr %24, align 4
  %25 = load i8, ptr %4, align 1
  %26 = add i8 %25, 1
  store i8 %26, ptr %4, align 1
  br label %29

27:                                               ; preds = %.lr.ph
  %28 = tail call ptr @expert_add_info(ptr noundef %2, ptr noundef %14, ptr noundef nonnull @ei_li)
  br label %29

29:                                               ; preds = %27, %17
  %30 = load i32, ptr @hf_me, align 4
  %31 = or disjoint i32 %13, 6
  %32 = tail call ptr @proto_tree_add_bits_item(ptr noundef %1, i32 noundef %30, ptr noundef %0, i32 noundef %31, i32 noundef 2, i32 noundef 0)
  %33 = load i32, ptr @hf_e, align 4
  %34 = or disjoint i32 %13, 7
  %35 = tail call ptr @proto_tree_add_bits_ret_val(ptr noundef %1, i32 noundef %33, ptr noundef %0, i32 noundef %34, i32 noundef 1, ptr noundef %6, i32 noundef 0)
  %36 = add i32 %.028, 1
  %37 = load i64, ptr %6, align 8
  %38 = icmp eq i64 %37, 0
  br i1 %38, label %.lr.ph, label %._crit_edge, !llvm.loop !8

._crit_edge:                                      ; preds = %29, %7
  %.0.lcssa = phi i32 [ %8, %7 ], [ %36, %29 ]
  %39 = sub i32 %.0.lcssa, %8
  ret i32 %39
}